target datalayout = "e-m:e-p270:32:32-p271:32:32-p272:64:64-i64:64-i128:128-f80:128-n8:16:32:64-S128"
target triple = "x86_64-pc-linux-gnu"

%struct.lean_object = type { i32, i32 }
%struct.lean_ctor_object = type { %struct.lean_object, [0 x ptr] }

; Function Attrs: alwaysinline nounwind uwtable
define internal zeroext i1 @lean_nat_eq(ptr noundef %0, ptr noundef %1) #0 {
  %3 = alloca i1, align 1
  %4 = alloca ptr, align 8
  %5 = alloca ptr, align 8
  store ptr %0, ptr %4, align 8, !tbaa !4
  store ptr %1, ptr %5, align 8, !tbaa !4
  %6 = load ptr, ptr %4, align 8, !tbaa !4
  %7 = call zeroext i1 @lean_is_scalar(ptr noundef %6)
  br i1 %7, label %8, label %11

8:                                                ; preds = %2
  %9 = load ptr, ptr %5, align 8, !tbaa !4
  %10 = call zeroext i1 @lean_is_scalar(ptr noundef %9)
  br label %11

11:                                               ; preds = %8, %2
  %12 = phi i1 [ false, %2 ], [ %10, %8 ]
  %13 = zext i1 %12 to i32
  %14 = sext i32 %13 to i64
  %15 = call i64 @llvm.expect.i64(i64 %14, i64 1)
  %16 = icmp ne i64 %15, 0
  br i1 %16, label %17, label %21

17:                                               ; preds = %11
  %18 = load ptr, ptr %4, align 8, !tbaa !4
  %19 = load ptr, ptr %5, align 8, !tbaa !4
  %20 = icmp eq ptr %18, %19
  store i1 %20, ptr %3, align 1
  br label %25

21:                                               ; preds = %11
  %22 = load ptr, ptr %4, align 8, !tbaa !4
  %23 = load ptr, ptr %5, align 8, !tbaa !4
  %24 = call zeroext i1 @lean_nat_big_eq(ptr noundef %22, ptr noundef %23)
  store i1 %24, ptr %3, align 1
  br label %25

25:                                               ; preds = %21, %17
  %26 = load i1, ptr %3, align 1
  ret i1 %26
}

; Function Attrs: inlinehint nounwind uwtable
define internal ptr @lean_to_ctor(ptr noundef %0) #3 {
  %2 = alloca ptr, align 8
  store ptr %0, ptr %2, align 8, !tbaa !4
  %3 = load ptr, ptr %2, align 8, !tbaa !4
  ret ptr %3
}

; Function Attrs: alwaysinline nounwind uwtable
define internal zeroext i8 @lean_nat_dec_eq(ptr noundef %0, ptr noundef %1) #0 {
  %3 = alloca ptr, align 8
  %4 = alloca ptr, align 8
  store ptr %0, ptr %3, align 8, !tbaa !4
  store ptr %1, ptr %4, align 8, !tbaa !4
  %5 = load ptr, ptr %3, align 8, !tbaa !4
  %6 = load ptr, ptr %4, align 8, !tbaa !4
  %7 = call zeroext i1 @lean_nat_eq(ptr noundef %5, ptr noundef %6)
  %8 = zext i1 %7 to i8
  ret i8 %8
}

; Function Attrs: inlinehint nounwind uwtable
define internal ptr @lean_ctor_obj_cptr(ptr noundef %0) #3 {
  %2 = alloca ptr, align 8
  store ptr %0, ptr %2, align 8, !tbaa !4
  %3 = load ptr, ptr %2, align 8, !tbaa !4
  %4 = call ptr @lean_to_ctor(ptr noundef %3)
  %5 = getelementptr inbounds nuw %struct.lean_ctor_object, ptr %4, i32 0, i32 1
  %6 = getelementptr inbounds [0 x ptr], ptr %5, i64 0, i64 0
  ret ptr %6
}

; Function Attrs: inlinehint nounwind uwtable
define internal zeroext i8 @lean_ptr_tag(ptr noundef %0) #3 {
  %2 = alloca ptr, align 8
  store ptr %0, ptr %2, align 8, !tbaa !4
  %3 = load ptr, ptr %2, align 8, !tbaa !4
  %4 = getelementptr inbounds nuw %struct.lean_object, ptr %3, i32 0, i32 1
  %5 = load i32, ptr %4, align 4
  %6 = lshr i32 %5, 24
  %7 = trunc i32 %6 to i8
  ret i8 %7
}

; Function Attrs: inlinehint nounwind uwtable
define internal i64 @lean_unbox(ptr noundef %0) #3 {
  %2 = alloca ptr, align 8
  store ptr %0, ptr %2, align 8, !tbaa !4
  %3 = load ptr, ptr %2, align 8, !tbaa !4
  %4 = ptrtoint ptr %3 to i64
  %5 = lshr i64 %4, 1
  ret i64 %5
}

; Function Attrs: alwaysinline nounwind uwtable
define internal zeroext i1 @lean_is_scalar(ptr noundef %0) #0 {
  %2 = alloca ptr, align 8
  store ptr %0, ptr %2, align 8, !tbaa !4
  %3 = load ptr, ptr %2, align 8, !tbaa !4
  %4 = ptrtoint ptr %3 to i64
  %5 = and i64 %4, 1
  %6 = icmp eq i64 %5, 1
  ret i1 %6
}

; Function Attrs: nounwind uwtable
define zeroext i8 @l_List_hasDecEq___at_Lean_Meta_beqOccurrences____x40_Init_MetaTypes___hyg_1231____spec__1(ptr noundef %0, ptr noundef %1) #1 {
  %3 = alloca i8, align 1
  %4 = alloca ptr, align 8
  %5 = alloca ptr, align 8
  %6 = alloca i8, align 1
  %7 = alloca i8, align 1
  %8 = alloca i8, align 1
  %9 = alloca ptr, align 8
  %10 = alloca ptr, align 8
  %11 = alloca ptr, align 8
  %12 = alloca ptr, align 8
  %13 = alloca i8, align 1
  %14 = alloca i8, align 1
  %15 = alloca i32, align 4
  store ptr %0, ptr %4, align 8, !tbaa !4
  store ptr %1, ptr %5, align 8, !tbaa !4
  br label %16

16:                                               ; preds = %54, %2
  %17 = load ptr, ptr %4, align 8, !tbaa !4
  %18 = call i32 @lean_obj_tag(ptr noundef %17)
  %19 = icmp eq i32 %18, 0
  br i1 %19, label %20, label %28

20:                                               ; preds = %16
  %21 = load ptr, ptr %5, align 8, !tbaa !4
  %22 = call i32 @lean_obj_tag(ptr noundef %21)
  %23 = icmp eq i32 %22, 0
  br i1 %23, label %24, label %26

24:                                               ; preds = %20
  call void @llvm.lifetime.start.p0(i64 1, ptr %6) #7
  store i8 1, ptr %6, align 1, !tbaa !8
  %25 = load i8, ptr %6, align 1, !tbaa !8
  store i8 %25, ptr %3, align 1
  call void @llvm.lifetime.end.p0(i64 1, ptr %6) #7
  br label %56

26:                                               ; preds = %20
  call void @llvm.lifetime.start.p0(i64 1, ptr %7) #7
  store i8 0, ptr %7, align 1, !tbaa !8
  %27 = load i8, ptr %7, align 1, !tbaa !8
  store i8 %27, ptr %3, align 1
  call void @llvm.lifetime.end.p0(i64 1, ptr %7) #7
  br label %56

28:                                               ; preds = %16
  %29 = load ptr, ptr %5, align 8, !tbaa !4
  %30 = call i32 @lean_obj_tag(ptr noundef %29)
  %31 = icmp eq i32 %30, 0
  br i1 %31, label %32, label %34

32:                                               ; preds = %28
  call void @llvm.lifetime.start.p0(i64 1, ptr %8) #7
  store i8 0, ptr %8, align 1, !tbaa !8
  %33 = load i8, ptr %8, align 1, !tbaa !8
  store i8 %33, ptr %3, align 1
  call void @llvm.lifetime.end.p0(i64 1, ptr %8) #7
  br label %56

34:                                               ; preds = %28
  call void @llvm.lifetime.start.p0(i64 8, ptr %9) #7
  call void @llvm.lifetime.start.p0(i64 8, ptr %10) #7
  call void @llvm.lifetime.start.p0(i64 8, ptr %11) #7
  call void @llvm.lifetime.start.p0(i64 8, ptr %12) #7
  call void @llvm.lifetime.start.p0(i64 1, ptr %13) #7
  %35 = load ptr, ptr %4, align 8, !tbaa !4
  %36 = call ptr @lean_ctor_get(ptr noundef %35, i32 noundef 0)
  store ptr %36, ptr %9, align 8, !tbaa !4
  %37 = load ptr, ptr %4, align 8, !tbaa !4
  %38 = call ptr @lean_ctor_get(ptr noundef %37, i32 noundef 1)
  store ptr %38, ptr %10, align 8, !tbaa !4
  %39 = load ptr, ptr %5, align 8, !tbaa !4
  %40 = call ptr @lean_ctor_get(ptr noundef %39, i32 noundef 0)
  store ptr %40, ptr %11, align 8, !tbaa !4
  %41 = load ptr, ptr %5, align 8, !tbaa !4
  %42 = call ptr @lean_ctor_get(ptr noundef %41, i32 noundef 1)
  store ptr %42, ptr %12, align 8, !tbaa !4
  %43 = load ptr, ptr %9, align 8, !tbaa !4
  %44 = load ptr, ptr %11, align 8, !tbaa !4
  %45 = call zeroext i8 @lean_nat_dec_eq(ptr noundef %43, ptr noundef %44)
  store i8 %45, ptr %13, align 1, !tbaa !8
  %46 = load i8, ptr %13, align 1, !tbaa !8
  %47 = zext i8 %46 to i32
  %48 = icmp eq i32 %47, 0
  br i1 %48, label %49, label %51

49:                                               ; preds = %34
  call void @llvm.lifetime.start.p0(i64 1, ptr %14) #7
  store i8 0, ptr %14, align 1, !tbaa !8
  %50 = load i8, ptr %14, align 1, !tbaa !8
  store i8 %50, ptr %3, align 1
  store i32 1, ptr %15, align 4
  call void @llvm.lifetime.end.p0(i64 1, ptr %14) #7
  br label %54

51:                                               ; preds = %34
  %52 = load ptr, ptr %10, align 8, !tbaa !4
  store ptr %52, ptr %4, align 8, !tbaa !4
  %53 = load ptr, ptr %12, align 8, !tbaa !4
  store ptr %53, ptr %5, align 8, !tbaa !4
  store i32 2, ptr %15, align 4
  br label %54

54:                                               ; preds = %51, %49
  call void @llvm.lifetime.end.p0(i64 1, ptr %13) #7
  call void @llvm.lifetime.end.p0(i64 8, ptr %12) #7
  call void @llvm.lifetime.end.p0(i64 8, ptr %11) #7
  call void @llvm.lifetime.end.p0(i64 8, ptr %10) #7
  call void @llvm.lifetime.end.p0(i64 8, ptr %9) #7
  %55 = load i32, ptr %15, align 4
  switch i32 %55, label %58 [
    i32 1, label %56
    i32 2, label %16
  ]

56:                                               ; preds = %54, %32, %26, %24
  %57 = load i8, ptr %3, align 1
  ret i8 %57

58:                                               ; preds = %54
  unreachable
}

; Function Attrs: inlinehint nounwind uwtable
define internal ptr @lean_ctor_get(ptr noundef %0, i32 noundef %1) #3 {
  %3 = alloca ptr, align 8
  %4 = alloca i32, align 4
  store ptr %0, ptr %3, align 8, !tbaa !4
  store i32 %1, ptr %4, align 4, !tbaa !9
  %5 = load ptr, ptr %3, align 8, !tbaa !4
  %6 = call ptr @lean_ctor_obj_cptr(ptr noundef %5)
  %7 = load i32, ptr %4, align 4, !tbaa !9
  %8 = zext i32 %7 to i64
  %9 = getelementptr inbounds nuw ptr, ptr %6, i64 %8
  %10 = load ptr, ptr %9, align 8, !tbaa !4
  ret ptr %10
}

; Function Attrs: inlinehint nounwind uwtable
define internal i32 @lean_obj_tag(ptr noundef %0) #3 {
  %2 = alloca i32, align 4
  %3 = alloca ptr, align 8
  store ptr %0, ptr %3, align 8, !tbaa !4
  %4 = load ptr, ptr %3, align 8, !tbaa !4
  %5 = call zeroext i1 @lean_is_scalar(ptr noundef %4)
  br i1 %5, label %6, label %10

6:                                                ; preds = %1
  %7 = load ptr, ptr %3, align 8, !tbaa !4
  %8 = call i64 @lean_unbox(ptr noundef %7)
  %9 = trunc i64 %8 to i32
  store i32 %9, ptr %2, align 4
  br label %14

10:                                               ; preds = %1
  %11 = load ptr, ptr %3, align 8, !tbaa !4
  %12 = call zeroext i8 @lean_ptr_tag(ptr noundef %11)
  %13 = zext i8 %12 to i32
  store i32 %13, ptr %2, align 4
  br label %14

14:                                               ; preds = %10, %6
  %15 = load i32, ptr %2, align 4
  ret i32 %15
}

; Function Attrs: nounwind uwtable
define zeroext i8 @l_Lean_Meta_beqOccurrences____x40_Init_MetaTypes___hyg_1231_(ptr noundef %0, ptr noundef %1) #1 {
  %3 = alloca i8, align 1
  %4 = alloca ptr, align 8
  %5 = alloca ptr, align 8
  %6 = alloca i8, align 1
  %7 = alloca i8, align 1
  %8 = alloca ptr, align 8
  %9 = alloca ptr, align 8
  %10 = alloca i8, align 1
  %11 = alloca i8, align 1
  %12 = alloca ptr, align 8
  %13 = alloca ptr, align 8
  %14 = alloca i8, align 1
  %15 = alloca i8, align 1
  store ptr %0, ptr %4, align 8, !tbaa !4
  store ptr %1, ptr %5, align 8, !tbaa !4
  br label %16

16:                                               ; preds = %2
  %17 = load ptr, ptr %4, align 8, !tbaa !4
  %18 = call i32 @lean_obj_tag(ptr noundef %17)
  switch i32 %18, label %42 [
    i32 0, label %19
    i32 1, label %27
  ]

19:                                               ; preds = %16
  %20 = load ptr, ptr %5, align 8, !tbaa !4
  %21 = call i32 @lean_obj_tag(ptr noundef %20)
  %22 = icmp eq i32 %21, 0
  br i1 %22, label %23, label %25

23:                                               ; preds = %19
  call void @llvm.lifetime.start.p0(i64 1, ptr %6) #7
  store i8 1, ptr %6, align 1, !tbaa !8
  %24 = load i8, ptr %6, align 1, !tbaa !8
  store i8 %24, ptr %3, align 1
  call void @llvm.lifetime.end.p0(i64 1, ptr %6) #7
  br label %57

25:                                               ; preds = %19
  call void @llvm.lifetime.start.p0(i64 1, ptr %7) #7
  store i8 0, ptr %7, align 1, !tbaa !8
  %26 = load i8, ptr %7, align 1, !tbaa !8
  store i8 %26, ptr %3, align 1
  call void @llvm.lifetime.end.p0(i64 1, ptr %7) #7
  br label %57

27:                                               ; preds = %16
  %28 = load ptr, ptr %5, align 8, !tbaa !4
  %29 = call i32 @lean_obj_tag(ptr noundef %28)
  %30 = icmp eq i32 %29, 1
  br i1 %30, label %31, label %40

31:                                               ; preds = %27
  call void @llvm.lifetime.start.p0(i64 8, ptr %8) #7
  call void @llvm.lifetime.start.p0(i64 8, ptr %9) #7
  call void @llvm.lifetime.start.p0(i64 1, ptr %10) #7
  %32 = load ptr, ptr %4, align 8, !tbaa !4
  %33 = call ptr @lean_ctor_get(ptr noundef %32, i32 noundef 0)
  store ptr %33, ptr %8, align 8, !tbaa !4
  %34 = load ptr, ptr %5, align 8, !tbaa !4
  %35 = call ptr @lean_ctor_get(ptr noundef %34, i32 noundef 0)
  store ptr %35, ptr %9, align 8, !tbaa !4
  %36 = load ptr, ptr %8, align 8, !tbaa !4
  %37 = load ptr, ptr %9, align 8, !tbaa !4
  %38 = call zeroext i8 @l_List_hasDecEq___at_Lean_Meta_beqOccurrences____x40_Init_MetaTypes___hyg_1231____spec__1(ptr noundef %36, ptr noundef %37)
  store i8 %38, ptr %10, align 1, !tbaa !8
  %39 = load i8, ptr %10, align 1, !tbaa !8
  store i8 %39, ptr %3, align 1
  call void @llvm.lifetime.end.p0(i64 1, ptr %10) #7
  call void @llvm.lifetime.end.p0(i64 8, ptr %9) #7
  call void @llvm.lifetime.end.p0(i64 8, ptr %8) #7
  br label %57

40:                                               ; preds = %27
  call void @llvm.lifetime.start.p0(i64 1, ptr %11) #7
  store i8 0, ptr %11, align 1, !tbaa !8
  %41 = load i8, ptr %11, align 1, !tbaa !8
  store i8 %41, ptr %3, align 1
  call void @llvm.lifetime.end.p0(i64 1, ptr %11) #7
  br label %57

42:                                               ; preds = %16
  %43 = load ptr, ptr %5, align 8, !tbaa !4
  %44 = call i32 @lean_obj_tag(ptr noundef %43)
  %45 = icmp eq i32 %44, 2
  br i1 %45, label %46, label %55

46:                                               ; preds = %42
  call void @llvm.lifetime.start.p0(i64 8, ptr %12) #7
  call void @llvm.lifetime.start.p0(i64 8, ptr %13) #7
  call void @llvm.lifetime.start.p0(i64 1, ptr %14) #7
  %47 = load ptr, ptr %4, align 8, !tbaa !4
  %48 = call ptr @lean_ctor_get(ptr noundef %47, i32 noundef 0)
  store ptr %48, ptr %12, align 8, !tbaa !4
  %49 = load ptr, ptr %5, align 8, !tbaa !4
  %50 = call ptr @lean_ctor_get(ptr noundef %49, i32 noundef 0)
  store ptr %50, ptr %13, align 8, !tbaa !4
  %51 = load ptr, ptr %12, align 8, !tbaa !4
  %52 = load ptr, ptr %13, align 8, !tbaa !4
  %53 = call zeroext i8 @l_List_hasDecEq___at_Lean_Meta_beqOccurrences____x40_Init_MetaTypes___hyg_1231____spec__1(ptr noundef %51, ptr noundef %52)
  store i8 %53, ptr %14, align 1, !tbaa !8
  %54 = load i8, ptr %14, align 1, !tbaa !8
  store i8 %54, ptr %3, align 1
  call void @llvm.lifetime.end.p0(i64 1, ptr %14) #7
  call void @llvm.lifetime.end.p0(i64 8, ptr %13) #7
  call void @llvm.lifetime.end.p0(i64 8, ptr %12) #7
  br label %57

55:                                               ; preds = %42
  call void @llvm.lifetime.start.p0(i64 1, ptr %15) #7
  store i8 0, ptr %15, align 1, !tbaa !8
  %56 = load i8, ptr %15, align 1, !tbaa !8
  store i8 %56, ptr %3, align 1
  call void @llvm.lifetime.end.p0(i64 1, ptr %15) #7
  br label %57

57:                                               ; preds = %55, %46, %40, %31, %25, %23
  %58 = load i8, ptr %3, align 1
  ret i8 %58
}