; Function Attrs: nounwind uwtable
define zeroext range(i8 0, 2) i8 @l_Lean_Meta_beqOccurrences____x40_Init_MetaTypes___hyg_1231_(ptr noundef %0, ptr noundef %1) local_unnamed_addr #1 {
  %3 = ptrtoint ptr %0 to i64
  %4 = and i64 %3, 1
  %.not.i = icmp eq i64 %4, 0
  br i1 %.not.i, label %8, label %5

5:                                                ; preds = %2
  %6 = lshr i64 %3, 1
  %7 = trunc i64 %6 to i32
  br label %lean_obj_tag.exit

8:                                                ; preds = %2
  %9 = getelementptr i8, ptr %0, i64 4
  %.val.i = load i32, ptr %9, align 4
  %10 = lshr i32 %.val.i, 24
  br label %lean_obj_tag.exit

lean_obj_tag.exit:                                ; preds = %5, %8
  %.0.i = phi i32 [ %7, %5 ], [ %10, %8 ]
  %11 = ptrtoint ptr %1 to i64
  %12 = and i64 %11, 1
  %.not.i26 = icmp eq i64 %12, 0
  switch i32 %.0.i, label %79 [
    i32 0, label %13
    i32 1, label %21
  ]

13:                                               ; preds = %lean_obj_tag.exit
  br i1 %.not.i26, label %17, label %14

14:                                               ; preds = %13
  %15 = lshr i64 %11, 1
  %16 = trunc i64 %15 to i32
  br label %lean_obj_tag.exit21

17:                                               ; preds = %13
  %18 = getelementptr i8, ptr %1, i64 4
  %.val.i20 = load i32, ptr %18, align 4
  %19 = lshr i32 %.val.i20, 24
  br label %lean_obj_tag.exit21

lean_obj_tag.exit21:                              ; preds = %14, %17
  %.0.i19 = phi i32 [ %16, %14 ], [ %19, %17 ]
  %20 = icmp eq i32 %.0.i19, 0
  br label %l_List_hasDecEq___at_Lean_Meta_beqOccurrences____x40_Init_MetaTypes___hyg_1231____spec__1.exit

21:                                               ; preds = %lean_obj_tag.exit
  br i1 %.not.i26, label %25, label %22

22:                                               ; preds = %21
  %23 = lshr i64 %11, 1
  %24 = trunc i64 %23 to i32
  br label %lean_obj_tag.exit25

25:                                               ; preds = %21
  %26 = getelementptr i8, ptr %1, i64 4
  %.val.i24 = load i32, ptr %26, align 4
  %27 = lshr i32 %.val.i24, 24
  br label %lean_obj_tag.exit25

lean_obj_tag.exit25:                              ; preds = %22, %25
  %.0.i23 = phi i32 [ %24, %22 ], [ %27, %25 ]
  %28 = icmp eq i32 %.0.i23, 1
  br i1 %28, label %29, label %l_List_hasDecEq___at_Lean_Meta_beqOccurrences____x40_Init_MetaTypes___hyg_1231____spec__1.exit

29:                                               ; preds = %lean_obj_tag.exit25
  %30 = getelementptr inbounds nuw i8, ptr %0, i64 8
  %31 = load ptr, ptr %30, align 8, !tbaa !10
  %32 = getelementptr inbounds nuw i8, ptr %1, i64 8
  %33 = load ptr, ptr %32, align 8, !tbaa !10
  br label %.backedge.i

.backedge.i:                                      ; preds = %.backedge.i.backedge, %29
  %.020.i = phi ptr [ %33, %29 ], [ %69, %.backedge.i.backedge ]
  %.018.i = phi ptr [ %31, %29 ], [ %65, %.backedge.i.backedge ]
  %34 = ptrtoint ptr %.018.i to i64
  %35 = and i64 %34, 1
  %.not.i.i = icmp eq i64 %35, 0
  br i1 %.not.i.i, label %39, label %36

36:                                               ; preds = %.backedge.i
  %37 = lshr i64 %34, 1
  %38 = trunc i64 %37 to i32
  br label %lean_obj_tag.exit.i

39:                                               ; preds = %.backedge.i
  %40 = getelementptr i8, ptr %.018.i, i64 4
  %.val.i.i = load i32, ptr %40, align 4
  %41 = lshr i32 %.val.i.i, 24
  br label %lean_obj_tag.exit.i

lean_obj_tag.exit.i:                              ; preds = %39, %36
  %.0.i23.i = phi i32 [ %38, %36 ], [ %41, %39 ]
  %42 = icmp eq i32 %.0.i23.i, 0
  %43 = ptrtoint ptr %.020.i to i64
  %44 = and i64 %43, 1
  %.not.i24.i = icmp eq i64 %44, 0
  br i1 %42, label %45, label %53

45:                                               ; preds = %lean_obj_tag.exit.i
  br i1 %.not.i24.i, label %49, label %46

46:                                               ; preds = %45
  %47 = lshr i64 %43, 1
  %48 = trunc i64 %47 to i32
  br label %lean_obj_tag.exit27.i

49:                                               ; preds = %45
  %50 = getelementptr i8, ptr %.020.i, i64 4
  %.val.i26.i = load i32, ptr %50, align 4
  %51 = lshr i32 %.val.i26.i, 24
  br label %lean_obj_tag.exit27.i

lean_obj_tag.exit27.i:                            ; preds = %49, %46
  %.0.i25.i = phi i32 [ %48, %46 ], [ %51, %49 ]
  %52 = icmp eq i32 %.0.i25.i, 0
  br label %l_List_hasDecEq___at_Lean_Meta_beqOccurrences____x40_Init_MetaTypes___hyg_1231____spec__1.exit

53:                                               ; preds = %lean_obj_tag.exit.i
  br i1 %.not.i24.i, label %57, label %54

54:                                               ; preds = %53
  %55 = lshr i64 %43, 1
  %56 = trunc i64 %55 to i32
  br label %lean_obj_tag.exit31.i

57:                                               ; preds = %53
  %58 = getelementptr i8, ptr %.020.i, i64 4
  %.val.i30.i = load i32, ptr %58, align 4
  %59 = lshr i32 %.val.i30.i, 24
  br label %lean_obj_tag.exit31.i

lean_obj_tag.exit31.i:                            ; preds = %57, %54
  %.0.i29.i = phi i32 [ %56, %54 ], [ %59, %57 ]
  %60 = icmp eq i32 %.0.i29.i, 0
  br i1 %60, label %l_List_hasDecEq___at_Lean_Meta_beqOccurrences____x40_Init_MetaTypes___hyg_1231____spec__1.exit, label %61

61:                                               ; preds = %lean_obj_tag.exit31.i
  %62 = getelementptr inbounds nuw i8, ptr %.018.i, i64 8
  %63 = load ptr, ptr %62, align 8, !tbaa !10
  %64 = getelementptr inbounds nuw i8, ptr %.018.i, i64 16
  %65 = load ptr, ptr %64, align 8, !tbaa !10
  %66 = getelementptr inbounds nuw i8, ptr %.020.i, i64 8
  %67 = load ptr, ptr %66, align 8, !tbaa !10
  %68 = getelementptr inbounds nuw i8, ptr %.020.i, i64 16
  %69 = load ptr, ptr %68, align 8, !tbaa !10
  %70 = ptrtoint ptr %63 to i64
  %71 = and i64 %70, 1
  %72 = icmp ne i64 %71, 0
  %73 = ptrtoint ptr %67 to i64
  %74 = and i64 %73, 1
  %75 = icmp ne i64 %74, 0
  %or.cond.i = select i1 %72, i1 %75, i1 false
  br i1 %or.cond.i, label %76, label %lean_nat_eq.exit.i, !prof !16

76:                                               ; preds = %61
  %77 = icmp eq ptr %63, %67
  br i1 %77, label %.backedge.i.backedge, label %l_List_hasDecEq___at_Lean_Meta_beqOccurrences____x40_Init_MetaTypes___hyg_1231____spec__1.exit

lean_nat_eq.exit.i:                               ; preds = %61
  %78 = tail call zeroext i1 @lean_nat_big_eq(ptr noundef %63, ptr noundef %67) #7
  br i1 %78, label %.backedge.i.backedge, label %l_List_hasDecEq___at_Lean_Meta_beqOccurrences____x40_Init_MetaTypes___hyg_1231____spec__1.exit

.backedge.i.backedge:                             ; preds = %lean_nat_eq.exit.i, %76
  br label %.backedge.i

79:                                               ; preds = %lean_obj_tag.exit
  br i1 %.not.i26, label %83, label %80

80:                                               ; preds = %79
  %81 = lshr i64 %11, 1
  %82 = trunc i64 %81 to i32
  br label %lean_obj_tag.exit29

83:                                               ; preds = %79
  %84 = getelementptr i8, ptr %1, i64 4
  %.val.i28 = load i32, ptr %84, align 4
  %85 = lshr i32 %.val.i28, 24
  br label %lean_obj_tag.exit29

lean_obj_tag.exit29:                              ; preds = %80, %83
  %.0.i27 = phi i32 [ %82, %80 ], [ %85, %83 ]
  %86 = icmp eq i32 %.0.i27, 2
  br i1 %86, label %87, label %l_List_hasDecEq___at_Lean_Meta_beqOccurrences____x40_Init_MetaTypes___hyg_1231____spec__1.exit

87:                                               ; preds = %lean_obj_tag.exit29
  %88 = getelementptr inbounds nuw i8, ptr %0, i64 8
  %89 = load ptr, ptr %88, align 8, !tbaa !10
  %90 = getelementptr inbounds nuw i8, ptr %1, i64 8
  %91 = load ptr, ptr %90, align 8, !tbaa !10
  br label %.backedge.i41

.backedge.i41:                                    ; preds = %.backedge.i41.backedge, %87
  %.020.i30 = phi ptr [ %91, %87 ], [ %127, %.backedge.i41.backedge ]
  %.018.i31 = phi ptr [ %89, %87 ], [ %123, %.backedge.i41.backedge ]
  %92 = ptrtoint ptr %.018.i31 to i64
  %93 = and i64 %92, 1
  %.not.i.i32 = icmp eq i64 %93, 0
  br i1 %.not.i.i32, label %97, label %94

94:                                               ; preds = %.backedge.i41
  %95 = lshr i64 %92, 1
  %96 = trunc i64 %95 to i32
  br label %lean_obj_tag.exit.i33

97:                                               ; preds = %.backedge.i41
  %98 = getelementptr i8, ptr %.018.i31, i64 4
  %.val.i.i48 = load i32, ptr %98, align 4
  %99 = lshr i32 %.val.i.i48, 24
  br label %lean_obj_tag.exit.i33

lean_obj_tag.exit.i33:                            ; preds = %97, %94
  %.0.i23.i34 = phi i32 [ %96, %94 ], [ %99, %97 ]
  %100 = icmp eq i32 %.0.i23.i34, 0
  %101 = ptrtoint ptr %.020.i30 to i64
  %102 = and i64 %101, 1
  %.not.i24.i43 = icmp eq i64 %102, 0
  br i1 %100, label %103, label %111

103:                                              ; preds = %lean_obj_tag.exit.i33
  br i1 %.not.i24.i43, label %107, label %104

104:                                              ; preds = %103
  %105 = lshr i64 %101, 1
  %106 = trunc i64 %105 to i32
  br label %lean_obj_tag.exit27.i44

107:                                              ; preds = %103
  %108 = getelementptr i8, ptr %.020.i30, i64 4
  %.val.i26.i47 = load i32, ptr %108, align 4
  %109 = lshr i32 %.val.i26.i47, 24
  br label %lean_obj_tag.exit27.i44

lean_obj_tag.exit27.i44:                          ; preds = %107, %104
  %.0.i25.i45 = phi i32 [ %106, %104 ], [ %109, %107 ]
  %110 = icmp eq i32 %.0.i25.i45, 0
  br label %l_List_hasDecEq___at_Lean_Meta_beqOccurrences____x40_Init_MetaTypes___hyg_1231____spec__1.exit

111:                                              ; preds = %lean_obj_tag.exit.i33
  br i1 %.not.i24.i43, label %115, label %112

112:                                              ; preds = %111
  %113 = lshr i64 %101, 1
  %114 = trunc i64 %113 to i32
  br label %lean_obj_tag.exit31.i36

115:                                              ; preds = %111
  %116 = getelementptr i8, ptr %.020.i30, i64 4
  %.val.i30.i42 = load i32, ptr %116, align 4
  %117 = lshr i32 %.val.i30.i42, 24
  br label %lean_obj_tag.exit31.i36

lean_obj_tag.exit31.i36:                          ; preds = %115, %112
  %.0.i29.i37 = phi i32 [ %114, %112 ], [ %117, %115 ]
  %118 = icmp eq i32 %.0.i29.i37, 0
  br i1 %118, label %l_List_hasDecEq___at_Lean_Meta_beqOccurrences____x40_Init_MetaTypes___hyg_1231____spec__1.exit, label %119

119:                                              ; preds = %lean_obj_tag.exit31.i36
  %120 = getelementptr inbounds nuw i8, ptr %.018.i31, i64 8
  %121 = load ptr, ptr %120, align 8, !tbaa !10
  %122 = getelementptr inbounds nuw i8, ptr %.018.i31, i64 16
  %123 = load ptr, ptr %122, align 8, !tbaa !10
  %124 = getelementptr inbounds nuw i8, ptr %.020.i30, i64 8
  %125 = load ptr, ptr %124, align 8, !tbaa !10
  %126 = getelementptr inbounds nuw i8, ptr %.020.i30, i64 16
  %127 = load ptr, ptr %126, align 8, !tbaa !10
  %128 = ptrtoint ptr %121 to i64
  %129 = and i64 %128, 1
  %130 = icmp ne i64 %129, 0
  %131 = ptrtoint ptr %125 to i64
  %132 = and i64 %131, 1
  %133 = icmp ne i64 %132, 0
  %or.cond.i38 = select i1 %130, i1 %133, i1 false
  br i1 %or.cond.i38, label %134, label %lean_nat_eq.exit.i39, !prof !16

134:                                              ; preds = %119
  %135 = icmp eq ptr %121, %125
  br i1 %135, label %.backedge.i41.backedge, label %l_List_hasDecEq___at_Lean_Meta_beqOccurrences____x40_Init_MetaTypes___hyg_1231____spec__1.exit

lean_nat_eq.exit.i39:                             ; preds = %119
  %136 = tail call zeroext i1 @lean_nat_big_eq(ptr noundef %121, ptr noundef %125) #7
  br i1 %136, label %.backedge.i41.backedge, label %l_List_hasDecEq___at_Lean_Meta_beqOccurrences____x40_Init_MetaTypes___hyg_1231____spec__1.exit

.backedge.i41.backedge:                           ; preds = %lean_nat_eq.exit.i39, %134
  br label %.backedge.i41

l_List_hasDecEq___at_Lean_Meta_beqOccurrences____x40_Init_MetaTypes___hyg_1231____spec__1.exit: ; preds = %lean_nat_eq.exit.i, %76, %lean_obj_tag.exit31.i, %lean_nat_eq.exit.i39, %134, %lean_obj_tag.exit31.i36, %lean_obj_tag.exit27.i44, %lean_obj_tag.exit27.i, %lean_obj_tag.exit29, %lean_obj_tag.exit25, %lean_obj_tag.exit21
  %.0.shrunk = phi i1 [ %20, %lean_obj_tag.exit21 ], [ false, %lean_obj_tag.exit25 ], [ false, %lean_obj_tag.exit29 ], [ %52, %lean_obj_tag.exit27.i ], [ %110, %lean_obj_tag.exit27.i44 ], [ false, %lean_obj_tag.exit31.i36 ], [ false, %134 ], [ false, %lean_nat_eq.exit.i39 ], [ false, %lean_obj_tag.exit31.i ], [ false, %76 ], [ false, %lean_nat_eq.exit.i ]
  %.0 = zext i1 %.0.shrunk to i8
  ret i8 %.0
}